; Function Attrs: mustprogress uwtable
define noundef zeroext i1 @_ZN2cv11FileStorage4openERKNSt7__cxx1112basic_stringIcSt11char_traitsIcESaIcEEEiS8_(ptr noundef nonnull align 8 dereferenceable(64) %0, ptr noundef nonnull readonly align 8 captures(none) dereferenceable(32) %1, i32 noundef %2, ptr noundef nonnull readonly align 8 captures(none) dereferenceable(32) %3) unnamed_addr #13 align 2 personality ptr @__gxx_personality_v0 {
  %5 = getelementptr inbounds nuw i8, ptr %0, i64 48
  %6 = load ptr, ptr %5, align 8, !tbaa !352
  %7 = load ptr, ptr %1, align 8, !tbaa !12
  %8 = load ptr, ptr %3, align 8, !tbaa !12
  %9 = invoke noundef zeroext i1 @_ZN2cv11FileStorage4Impl4openEPKciS3_(ptr noundef nonnull align 8 dereferenceable(700) %6, ptr noundef %7, i32 noundef %2, ptr noundef %8)
          to label %10 unwind label %13

10:                                               ; preds = %4
  br i1 %9, label %11, label %21

11:                                               ; preds = %10
  %12 = getelementptr inbounds nuw i8, ptr %0, i64 8
  store i32 6, ptr %12, align 8, !tbaa !342
  br label %21

13:                                               ; preds = %4
  %14 = landingpad { ptr, i32 }
          catch ptr null
  %15 = extractvalue { ptr, i32 } %14, 0
  %16 = tail call ptr @__cxa_begin_catch(ptr %15) #41
  %17 = load ptr, ptr %0, align 8, !tbaa !114
  %18 = getelementptr inbounds nuw i8, ptr %17, i64 32
  %19 = load ptr, ptr %18, align 8
  invoke void %19(ptr noundef nonnull align 8 dereferenceable(64) %0)
          to label %20 unwind label %22

20:                                               ; preds = %13
  invoke void @__cxa_rethrow() #42
          to label %28 unwind label %22

21:                                               ; preds = %11, %10
  ret i1 %9

22:                                               ; preds = %20, %13
  %23 = landingpad { ptr, i32 }
          cleanup
  invoke void @__cxa_end_catch()
          to label %24 unwind label %25

24:                                               ; preds = %22
  resume { ptr, i32 } %23

25:                                               ; preds = %22
  %26 = landingpad { ptr, i32 }
          catch ptr null
  %27 = extractvalue { ptr, i32 } %26, 0
  tail call void @__clang_call_terminate(ptr %27) #45
  unreachable

28:                                               ; preds = %20
  unreachable
}